target datalayout = "e-m:e-p270:32:32-p271:32:32-p272:64:64-i64:64-i128:128-f80:128-n8:16:32:64-S128"
target triple = "x86_64-pc-linux-gnu"

%"class.testing::Test" = type { ptr, %"class.testing::internal::scoped_ptr.77" }
%"class.testing::internal::scoped_ptr.77" = type { ptr }

@_ZTVN7testing4TestE = unnamed_addr constant { [8 x ptr] } { [8 x ptr] [ptr null, ptr @_ZTIN7testing4TestE, ptr @_ZN7testing4TestD1Ev, ptr @_ZN7testing4TestD0Ev, ptr @_ZN7testing4Test5SetUpEv, ptr @_ZN7testing4Test8TearDownEv, ptr @__cxa_pure_virtual, ptr @_ZN7testing4Test5SetupEv] }, align 8

; Function Attrs: mustprogress nounwind uwtable
define noundef zeroext i1 @_ZN7testing8internal6IsTrueEb(i1 noundef zeroext %0) #7 {
  %2 = alloca i8, align 1
  %3 = zext i1 %0 to i8
  store i8 %3, ptr %2, align 1, !tbaa !13
  %4 = load i8, ptr %2, align 1, !tbaa !13, !range !17, !noundef !18
  %5 = trunc i8 %4 to i1
  ret i1 %5
}

; Function Attrs: noinline noreturn nounwind uwtable
define linkonce_odr hidden void @__clang_call_terminate(ptr noundef %0) #13 comdat {
  %2 = call ptr @__cxa_begin_catch(ptr %0) #3
  call void @_ZSt9terminatev() #28
  unreachable
}

; Function Attrs: mustprogress nounwind uwtable
define linkonce_odr hidden void @_ZN7testing8internal10scoped_ptrINS0_14GTestFlagSaverEE5resetEPS2_(ptr noundef nonnull align 8 dereferenceable(8) %0, ptr noundef %1) #7 comdat align 2 {
  %3 = alloca ptr, align 8
  %4 = alloca ptr, align 8
  store ptr %0, ptr %3, align 8, !tbaa !367
  store ptr %1, ptr %4, align 8, !tbaa !352
  %5 = load ptr, ptr %3, align 8
  %6 = load ptr, ptr %4, align 8, !tbaa !352
  %7 = getelementptr inbounds nuw %"class.testing::internal::scoped_ptr.77", ptr %5, i32 0, i32 0
  %8 = load ptr, ptr %7, align 8, !tbaa !369
  %9 = icmp ne ptr %6, %8
  br i1 %9, label %10, label %21

10:                                               ; preds = %2
  %11 = call noundef zeroext i1 @_ZN7testing8internal6IsTrueEb(i1 noundef zeroext true)
  br i1 %11, label %12, label %18

12:                                               ; preds = %10
  %13 = getelementptr inbounds nuw %"class.testing::internal::scoped_ptr.77", ptr %5, i32 0, i32 0
  %14 = load ptr, ptr %13, align 8, !tbaa !369
  %15 = icmp eq ptr %14, null
  br i1 %15, label %17, label %16

16:                                               ; preds = %12
  call void @_ZN7testing8internal14GTestFlagSaverD2Ev(ptr noundef nonnull align 8 dereferenceable(273) %14) #3
  call void @_ZdlPv(ptr noundef %14) #30
  br label %17

17:                                               ; preds = %16, %12
  br label %18

18:                                               ; preds = %17, %10
  %19 = load ptr, ptr %4, align 8, !tbaa !352
  %20 = getelementptr inbounds nuw %"class.testing::internal::scoped_ptr.77", ptr %5, i32 0, i32 0
  store ptr %19, ptr %20, align 8, !tbaa !369
  br label %21

21:                                               ; preds = %18, %2
  ret void
}

; Function Attrs: mustprogress nounwind uwtable
define linkonce_odr hidden void @_ZN7testing8internal10scoped_ptrINS0_14GTestFlagSaverEED2Ev(ptr noundef nonnull align 8 dereferenceable(8) %0) unnamed_addr #7 comdat align 2 personality ptr @__gxx_personality_v0 {
  %2 = alloca ptr, align 8
  store ptr %0, ptr %2, align 8, !tbaa !367
  %3 = load ptr, ptr %2, align 8
  invoke void @_ZN7testing8internal10scoped_ptrINS0_14GTestFlagSaverEE5resetEPS2_(ptr noundef nonnull align 8 dereferenceable(8) %3, ptr noundef null)
          to label %4 unwind label %5

4:                                                ; preds = %1
  ret void

5:                                                ; preds = %1
  %6 = landingpad { ptr, i32 }
          catch ptr null
  %7 = extractvalue { ptr, i32 } %6, 0
  call void @__clang_call_terminate(ptr %7) #28
  unreachable
}

; Function Attrs: mustprogress nounwind uwtable
define void @_ZN7testing4TestD2Ev(ptr noundef nonnull align 8 dereferenceable(16) %0) unnamed_addr #7 align 2 {
  %2 = alloca ptr, align 8
  store ptr %0, ptr %2, align 8, !tbaa !350
  %3 = load ptr, ptr %2, align 8
  store ptr getelementptr inbounds inrange(-16, 48) ({ [8 x ptr] }, ptr @_ZTVN7testing4TestE, i32 0, i32 0, i32 2), ptr %3, align 8, !tbaa !33
  %4 = getelementptr inbounds nuw %"class.testing::Test", ptr %3, i32 0, i32 1
  call void @_ZN7testing8internal10scoped_ptrINS0_14GTestFlagSaverEED2Ev(ptr noundef nonnull align 8 dereferenceable(8) %4) #3
  ret void
}