; Function Attrs: mustprogress nounwind uwtable
define void @_ZN7testing4TestD2Ev(ptr noundef nonnull align 8 captures(none) dereferenceable(16) initializes((0, 8)) %0) unnamed_addr #5 align 2 personality ptr @__gxx_personality_v0 {
  store ptr getelementptr inbounds nuw inrange(-16, 48) (i8, ptr @_ZTVN7testing4TestE, i64 16), ptr %0, align 8, !tbaa !23
  %2 = getelementptr inbounds nuw i8, ptr %0, i64 8
  %3 = load ptr, ptr %2, align 8, !tbaa !601
  %.not.i.i = icmp eq ptr %3, null
  br i1 %.not.i.i, label %_ZN7testing8internal10scoped_ptrINS0_14GTestFlagSaverEED2Ev.exit, label %4

4:                                                ; preds = %1
  tail call void @_ZN7testing8internal14GTestFlagSaverD2Ev(ptr noundef nonnull align 8 dereferenceable(273) %3) #56
  tail call void @_ZdlPv(ptr noundef nonnull %3) #57
  store ptr null, ptr %2, align 8, !tbaa !601
  br label %_ZN7testing8internal10scoped_ptrINS0_14GTestFlagSaverEED2Ev.exit

_ZN7testing8internal10scoped_ptrINS0_14GTestFlagSaverEED2Ev.exit: ; preds = %1, %4
  ret void
}